target datalayout = "e-m:e-p270:32:32-p271:32:32-p272:64:64-i64:64-i128:128-f80:128-n8:16:32:64-S128"
target triple = "x86_64-pc-linux-gnu"

%class.b3Point2PointConstraint = type { %class.b3TypedConstraint, %class.b3Vector3, %class.b3Vector3, i32, float, float, %struct.b3ConstraintSetting, [8 x i8] }
%class.b3TypedConstraint = type { ptr, %struct.b3TypedObject, i32, %union.anon, float, i8, i8, i32, i32, i32, float, float, ptr }
%struct.b3TypedObject = type { i32 }
%union.anon = type { ptr }
%class.b3Vector3 = type { %union.anon.0 }
%union.anon.0 = type { [4 x float] }
%struct.b3ConstraintSetting = type { float, float, float }

; Function Attrs: mustprogress nounwind uwtable
define linkonce_odr dso_local void @_ZN17b3TypedConstraintD2Ev(ptr noundef nonnull align 16 dereferenceable(64) %0) unnamed_addr #3 comdat align 2 {
  %2 = alloca ptr, align 8
  store ptr %0, ptr %2, align 8, !tbaa !72
  ret void
}

; Function Attrs: mustprogress nounwind uwtable
define linkonce_odr dso_local void @_ZN19b3ConstraintSettingC2Ev(ptr noundef nonnull align 4 dereferenceable(12) %0) unnamed_addr #3 comdat align 2 {
  %2 = alloca ptr, align 8
  store ptr %0, ptr %2, align 8, !tbaa !26
  %3 = load ptr, ptr %2, align 8
  %4 = getelementptr inbounds nuw %struct.b3ConstraintSetting, ptr %3, i32 0, i32 0
  store float 0x3FD3333340000000, ptr %4, align 4, !tbaa !28
  %5 = getelementptr inbounds nuw %struct.b3ConstraintSetting, ptr %3, i32 0, i32 1
  store float 1.000000e+00, ptr %5, align 4, !tbaa !29
  %6 = getelementptr inbounds nuw %struct.b3ConstraintSetting, ptr %3, i32 0, i32 2
  store float 0.000000e+00, ptr %6, align 4, !tbaa !30
  ret void
}

; Function Attrs: mustprogress uwtable
define dso_local void @_ZN23b3Point2PointConstraintC2EiiRK9b3Vector3S2_(ptr noundef nonnull align 16 dereferenceable(120) %0, i32 noundef %1, i32 noundef %2, ptr noundef nonnull align 16 dereferenceable(16) %3, ptr noundef nonnull align 16 dereferenceable(16) %4) unnamed_addr #0 align 2 personality ptr @__gxx_personality_v0 {
  %6 = alloca ptr, align 8
  %7 = alloca i32, align 4
  %8 = alloca i32, align 4
  %9 = alloca ptr, align 8
  %10 = alloca ptr, align 8
  %11 = alloca ptr, align 8
  %12 = alloca i32, align 4
  store ptr %0, ptr %6, align 8, !tbaa !4
  store i32 %1, ptr %7, align 4, !tbaa !9
  store i32 %2, ptr %8, align 4, !tbaa !9
  store ptr %3, ptr %9, align 8, !tbaa !11
  store ptr %4, ptr %10, align 8, !tbaa !11
  %13 = load ptr, ptr %6, align 8
  %14 = load i32, ptr %7, align 4, !tbaa !9
  %15 = load i32, ptr %8, align 4, !tbaa !9
  call void @_ZN17b3TypedConstraintC2E21b3TypedConstraintTypeii(ptr noundef nonnull align 16 dereferenceable(64) %13, i32 noundef 3, i32 noundef %14, i32 noundef %15)
  store ptr getelementptr inbounds inrange(-16, 64) ({ [10 x ptr] }, ptr @_ZTV23b3Point2PointConstraint, i32 0, i32 0, i32 2), ptr %13, align 16, !tbaa !13
  %16 = getelementptr inbounds nuw %class.b3Point2PointConstraint, ptr %13, i32 0, i32 1
  %17 = load ptr, ptr %9, align 8, !tbaa !11
  call void @llvm.memcpy.p0.p0.i64(ptr align 16 %16, ptr align 16 %17, i64 16, i1 false), !tbaa.struct !15
  %18 = getelementptr inbounds nuw %class.b3Point2PointConstraint, ptr %13, i32 0, i32 2
  %19 = load ptr, ptr %10, align 8, !tbaa !11
  call void @llvm.memcpy.p0.p0.i64(ptr align 16 %18, ptr align 16 %19, i64 16, i1 false), !tbaa.struct !15
  %20 = getelementptr inbounds nuw %class.b3Point2PointConstraint, ptr %13, i32 0, i32 3
  store i32 0, ptr %20, align 16, !tbaa !17
  %21 = getelementptr inbounds nuw %class.b3Point2PointConstraint, ptr %13, i32 0, i32 6
  invoke void @_ZN19b3ConstraintSettingC2Ev(ptr noundef nonnull align 4 dereferenceable(12) %21)
          to label %22 unwind label %23

22:                                               ; preds = %5
  ret void

23:                                               ; preds = %5
  %24 = landingpad { ptr, i32 }
          cleanup
  %25 = extractvalue { ptr, i32 } %24, 0
  store ptr %25, ptr %11, align 8
  %26 = extractvalue { ptr, i32 } %24, 1
  store i32 %26, ptr %12, align 4
  call void @_ZN17b3TypedConstraintD2Ev(ptr noundef nonnull align 16 dereferenceable(64) %13) #12
  br label %27

27:                                               ; preds = %23
  %28 = load ptr, ptr %11, align 8
  %29 = load i32, ptr %12, align 4
  %30 = insertvalue { ptr, i32 } poison, ptr %28, 0
  %31 = insertvalue { ptr, i32 } %30, i32 %29, 1
  resume { ptr, i32 } %31
}