; Function Attrs: mustprogress uwtable
define dso_local void @_ZN23b3Point2PointConstraintC2EiiRK9b3Vector3S2_(ptr noundef nonnull align 16 dereferenceable(120) %0, i32 noundef %1, i32 noundef %2, ptr noundef nonnull readonly align 16 captures(none) dereferenceable(16) %3, ptr noundef nonnull readonly align 16 captures(none) dereferenceable(16) %4) unnamed_addr #0 align 2 personality ptr @__gxx_personality_v0 {
  tail call void @_ZN17b3TypedConstraintC2E21b3TypedConstraintTypeii(ptr noundef nonnull align 16 dereferenceable(64) %0, i32 noundef 3, i32 noundef %1, i32 noundef %2)
  store ptr getelementptr inbounds nuw inrange(-16, 64) (i8, ptr @_ZTV23b3Point2PointConstraint, i64 16), ptr %0, align 16, !tbaa !4
  %6 = getelementptr inbounds nuw i8, ptr %0, i64 64
  tail call void @llvm.memcpy.p0.p0.i64(ptr noundef nonnull align 16 dereferenceable(16) %6, ptr noundef nonnull align 16 dereferenceable(16) %3, i64 16, i1 false), !tbaa.struct !7
  %7 = getelementptr inbounds nuw i8, ptr %0, i64 80
  tail call void @llvm.memcpy.p0.p0.i64(ptr noundef nonnull align 16 dereferenceable(16) %7, ptr noundef nonnull align 16 dereferenceable(16) %4, i64 16, i1 false), !tbaa.struct !7
  %8 = getelementptr inbounds nuw i8, ptr %0, i64 96
  store i32 0, ptr %8, align 16, !tbaa !10
  %9 = getelementptr inbounds nuw i8, ptr %0, i64 108
  store float 0x3FD3333340000000, ptr %9, align 4, !tbaa !21
  %10 = getelementptr inbounds nuw i8, ptr %0, i64 112
  store float 1.000000e+00, ptr %10, align 16, !tbaa !22
  %11 = getelementptr inbounds nuw i8, ptr %0, i64 116
  store float 0.000000e+00, ptr %11, align 4, !tbaa !23
  ret void
}